target datalayout = "e-m:e-p270:32:32-p271:32:32-p272:64:64-i64:64-i128:128-f80:128-n8:16:32:64-S128"
target triple = "x86_64-pc-linux-gnu"

%struct.malloc_params = type { i64, i64, i64, i64, i64, i32 }
%struct.malloc_state = type { i32, i32, i64, i64, ptr, ptr, ptr, i64, i64, i64, [66 x ptr], [32 x ptr], i64, i64, i64, i32, i32, %struct.malloc_segment, ptr, i64 }
%struct.malloc_segment = type { ptr, i64, ptr, i32 }
%struct.malloc_chunk = type { i64, i64, ptr, ptr }
%struct.boost_cont_malloc_stats_impl = type { i64, i64, i64 }

@mparams = internal global %struct.malloc_params zeroinitializer, align 8
@_gm_ = internal global %struct.malloc_state zeroinitializer, align 8

; Function Attrs: nounwind uwtable
define internal i32 @spin_acquire_lock(ptr noundef %0) #0 {
  %2 = alloca ptr, align 8
  %3 = alloca i32, align 4
  store ptr %0, ptr %2, align 8, !tbaa !16
  call void @llvm.lifetime.start.p0(i64 4, ptr %3) #9
  store i32 0, ptr %3, align 4, !tbaa !14
  br label %4

4:                                                ; preds = %21, %1
  %5 = load ptr, ptr %2, align 8, !tbaa !16
  %6 = load volatile i32, ptr %5, align 4, !tbaa !14
  %7 = icmp ne i32 %6, 0
  br i1 %7, label %12, label %8

8:                                                ; preds = %4
  %9 = load ptr, ptr %2, align 8, !tbaa !16
  %10 = atomicrmw xchg ptr %9, i32 1 seq_cst, align 4
  %11 = icmp ne i32 %10, 0
  br label %12

12:                                               ; preds = %8, %4
  %13 = phi i1 [ true, %4 ], [ %11, %8 ]
  br i1 %13, label %14, label %22

14:                                               ; preds = %12
  %15 = load i32, ptr %3, align 4, !tbaa !14
  %16 = add nsw i32 %15, 1
  store i32 %16, ptr %3, align 4, !tbaa !14
  %17 = and i32 %16, 63
  %18 = icmp eq i32 %17, 0
  br i1 %18, label %19, label %21

19:                                               ; preds = %14
  %20 = call i32 @sched_yield() #9
  br label %21

21:                                               ; preds = %19, %14
  br label %4, !llvm.loop !34

22:                                               ; preds = %12
  call void @llvm.lifetime.end.p0(i64 4, ptr %3) #9
  ret i32 0
}

; Function Attrs: nounwind uwtable
define internal void @get_malloc_stats(ptr dead_on_unwind noalias writable sret(%struct.boost_cont_malloc_stats_impl) align 8 %0, ptr noundef %1) #0 {
  %3 = alloca ptr, align 8
  %4 = alloca i64, align 8
  %5 = alloca i64, align 8
  %6 = alloca i64, align 8
  %7 = alloca ptr, align 8
  %8 = alloca ptr, align 8
  store ptr %1, ptr %3, align 8, !tbaa !16
  call void @llvm.memset.p0.i64(ptr align 8 %0, i8 0, i64 24, i1 false)
  %9 = load i64, ptr @mparams, align 8, !tbaa !7
  %10 = icmp ne i64 %9, 0
  br i1 %10, label %13, label %11

11:                                               ; preds = %2
  %12 = call i32 @init_mparams()
  br label %13

13:                                               ; preds = %11, %2
  %14 = load ptr, ptr %3, align 8, !tbaa !16
  %15 = getelementptr inbounds nuw %struct.malloc_state, ptr %14, i32 0, i32 15
  %16 = load i32, ptr %15, align 8, !tbaa !10
  %17 = and i32 %16, 2
  %18 = icmp ne i32 %17, 0
  br i1 %18, label %19, label %30

19:                                               ; preds = %13
  %20 = load ptr, ptr %3, align 8, !tbaa !16
  %21 = getelementptr inbounds nuw %struct.malloc_state, ptr %20, i32 0, i32 16
  %22 = atomicrmw xchg ptr %21, i32 1 seq_cst, align 4
  %23 = icmp ne i32 %22, 0
  br i1 %23, label %24, label %29

24:                                               ; preds = %19
  %25 = load ptr, ptr %3, align 8, !tbaa !16
  %26 = getelementptr inbounds nuw %struct.malloc_state, ptr %25, i32 0, i32 16
  %27 = call i32 @spin_acquire_lock(ptr noundef %26)
  %28 = icmp ne i32 %27, 0
  br i1 %28, label %148, label %31

29:                                               ; preds = %19
  br i1 false, label %148, label %31

30:                                               ; preds = %13
  br i1 false, label %148, label %31

31:                                               ; preds = %30, %29, %24
  call void @llvm.lifetime.start.p0(i64 8, ptr %4) #9
  store i64 0, ptr %4, align 8, !tbaa !3
  call void @llvm.lifetime.start.p0(i64 8, ptr %5) #9
  store i64 0, ptr %5, align 8, !tbaa !3
  call void @llvm.lifetime.start.p0(i64 8, ptr %6) #9
  store i64 0, ptr %6, align 8, !tbaa !3
  %32 = load ptr, ptr %3, align 8, !tbaa !16
  %33 = getelementptr inbounds nuw %struct.malloc_state, ptr %32, i32 0, i32 6
  %34 = load ptr, ptr %33, align 8, !tbaa !27
  %35 = icmp ne ptr %34, null
  br i1 %35, label %36, label %132

36:                                               ; preds = %31
  call void @llvm.lifetime.start.p0(i64 8, ptr %7) #9
  %37 = load ptr, ptr %3, align 8, !tbaa !16
  %38 = getelementptr inbounds nuw %struct.malloc_state, ptr %37, i32 0, i32 17
  store ptr %38, ptr %7, align 8, !tbaa !16
  %39 = load ptr, ptr %3, align 8, !tbaa !16
  %40 = getelementptr inbounds nuw %struct.malloc_state, ptr %39, i32 0, i32 13
  %41 = load i64, ptr %40, align 8, !tbaa !48
  store i64 %41, ptr %4, align 8, !tbaa !3
  %42 = load ptr, ptr %3, align 8, !tbaa !16
  %43 = getelementptr inbounds nuw %struct.malloc_state, ptr %42, i32 0, i32 12
  %44 = load i64, ptr %43, align 8, !tbaa !47
  store i64 %44, ptr %5, align 8, !tbaa !3
  %45 = load i64, ptr %5, align 8, !tbaa !3
  %46 = load ptr, ptr %3, align 8, !tbaa !16
  %47 = getelementptr inbounds nuw %struct.malloc_state, ptr %46, i32 0, i32 3
  %48 = load i64, ptr %47, align 8, !tbaa !26
  %49 = add i64 %48, 80
  %50 = sub i64 %45, %49
  store i64 %50, ptr %6, align 8, !tbaa !3
  br label %51

51:                                               ; preds = %127, %36
  %52 = load ptr, ptr %7, align 8, !tbaa !16
  %53 = icmp ne ptr %52, null
  br i1 %53, label %54, label %131

54:                                               ; preds = %51
  call void @llvm.lifetime.start.p0(i64 8, ptr %8) #9
  %55 = load ptr, ptr %7, align 8, !tbaa !16
  %56 = getelementptr inbounds nuw %struct.malloc_segment, ptr %55, i32 0, i32 0
  %57 = load ptr, ptr %56, align 8, !tbaa !54
  %58 = load ptr, ptr %7, align 8, !tbaa !16
  %59 = getelementptr inbounds nuw %struct.malloc_segment, ptr %58, i32 0, i32 0
  %60 = load ptr, ptr %59, align 8, !tbaa !54
  %61 = getelementptr inbounds nuw i8, ptr %60, i64 16
  %62 = ptrtoint ptr %61 to i64
  %63 = and i64 %62, 15
  %64 = icmp eq i64 %63, 0
  br i1 %64, label %65, label %66

65:                                               ; preds = %54
  br label %75

66:                                               ; preds = %54
  %67 = load ptr, ptr %7, align 8, !tbaa !16
  %68 = getelementptr inbounds nuw %struct.malloc_segment, ptr %67, i32 0, i32 0
  %69 = load ptr, ptr %68, align 8, !tbaa !54
  %70 = getelementptr inbounds nuw i8, ptr %69, i64 16
  %71 = ptrtoint ptr %70 to i64
  %72 = and i64 %71, 15
  %73 = sub i64 16, %72
  %74 = and i64 %73, 15
  br label %75

75:                                               ; preds = %66, %65
  %76 = phi i64 [ 0, %65 ], [ %74, %66 ]
  %77 = getelementptr inbounds nuw i8, ptr %57, i64 %76
  store ptr %77, ptr %8, align 8, !tbaa !16
  br label %78

78:                                               ; preds = %120, %75
  %79 = load ptr, ptr %8, align 8, !tbaa !16
  %80 = load ptr, ptr %7, align 8, !tbaa !16
  %81 = getelementptr inbounds nuw %struct.malloc_segment, ptr %80, i32 0, i32 0
  %82 = load ptr, ptr %81, align 8, !tbaa !54
  %83 = icmp uge ptr %79, %82
  br i1 %83, label %84, label %105

84:                                               ; preds = %78
  %85 = load ptr, ptr %8, align 8, !tbaa !16
  %86 = load ptr, ptr %7, align 8, !tbaa !16
  %87 = getelementptr inbounds nuw %struct.malloc_segment, ptr %86, i32 0, i32 0
  %88 = load ptr, ptr %87, align 8, !tbaa !54
  %89 = load ptr, ptr %7, align 8, !tbaa !16
  %90 = getelementptr inbounds nuw %struct.malloc_segment, ptr %89, i32 0, i32 1
  %91 = load i64, ptr %90, align 8, !tbaa !55
  %92 = getelementptr inbounds nuw i8, ptr %88, i64 %91
  %93 = icmp ult ptr %85, %92
  br i1 %93, label %94, label %105

94:                                               ; preds = %84
  %95 = load ptr, ptr %8, align 8, !tbaa !16
  %96 = load ptr, ptr %3, align 8, !tbaa !16
  %97 = getelementptr inbounds nuw %struct.malloc_state, ptr %96, i32 0, i32 6
  %98 = load ptr, ptr %97, align 8, !tbaa !27
  %99 = icmp ne ptr %95, %98
  br i1 %99, label %100, label %105

100:                                              ; preds = %94
  %101 = load ptr, ptr %8, align 8, !tbaa !16
  %102 = getelementptr inbounds nuw %struct.malloc_chunk, ptr %101, i32 0, i32 1
  %103 = load i64, ptr %102, align 8, !tbaa !21
  %104 = icmp ne i64 %103, 11
  br label %105

105:                                              ; preds = %100, %94, %84, %78
  %106 = phi i1 [ false, %94 ], [ false, %84 ], [ false, %78 ], [ %104, %100 ]
  br i1 %106, label %107, label %127

107:                                              ; preds = %105
  %108 = load ptr, ptr %8, align 8, !tbaa !16
  %109 = getelementptr inbounds nuw %struct.malloc_chunk, ptr %108, i32 0, i32 1
  %110 = load i64, ptr %109, align 8, !tbaa !21
  %111 = and i64 %110, 2
  %112 = icmp ne i64 %111, 0
  br i1 %112, label %120, label %113

113:                                              ; preds = %107
  %114 = load ptr, ptr %8, align 8, !tbaa !16
  %115 = getelementptr inbounds nuw %struct.malloc_chunk, ptr %114, i32 0, i32 1
  %116 = load i64, ptr %115, align 8, !tbaa !21
  %117 = and i64 %116, -8
  %118 = load i64, ptr %6, align 8, !tbaa !3
  %119 = sub i64 %118, %117
  store i64 %119, ptr %6, align 8, !tbaa !3
  br label %120

120:                                              ; preds = %113, %107
  %121 = load ptr, ptr %8, align 8, !tbaa !16
  %122 = load ptr, ptr %8, align 8, !tbaa !16
  %123 = getelementptr inbounds nuw %struct.malloc_chunk, ptr %122, i32 0, i32 1
  %124 = load i64, ptr %123, align 8, !tbaa !21
  %125 = and i64 %124, -8
  %126 = getelementptr inbounds nuw i8, ptr %121, i64 %125
  store ptr %126, ptr %8, align 8, !tbaa !16
  br label %78, !llvm.loop !96

127:                                              ; preds = %105
  %128 = load ptr, ptr %7, align 8, !tbaa !16
  %129 = getelementptr inbounds nuw %struct.malloc_segment, ptr %128, i32 0, i32 2
  %130 = load ptr, ptr %129, align 8, !tbaa !56
  store ptr %130, ptr %7, align 8, !tbaa !16
  call void @llvm.lifetime.end.p0(i64 8, ptr %8) #9
  br label %51, !llvm.loop !97

131:                                              ; preds = %51
  call void @llvm.lifetime.end.p0(i64 8, ptr %7) #9
  br label %132

132:                                              ; preds = %131, %31
  %133 = load i64, ptr %4, align 8, !tbaa !3
  %134 = getelementptr inbounds nuw %struct.boost_cont_malloc_stats_impl, ptr %0, i32 0, i32 0
  store i64 %133, ptr %134, align 8, !tbaa !98
  %135 = load i64, ptr %5, align 8, !tbaa !3
  %136 = getelementptr inbounds nuw %struct.boost_cont_malloc_stats_impl, ptr %0, i32 0, i32 1
  store i64 %135, ptr %136, align 8, !tbaa !100
  %137 = load i64, ptr %6, align 8, !tbaa !3
  %138 = getelementptr inbounds nuw %struct.boost_cont_malloc_stats_impl, ptr %0, i32 0, i32 2
  store i64 %137, ptr %138, align 8, !tbaa !101
  %139 = load ptr, ptr %3, align 8, !tbaa !16
  %140 = getelementptr inbounds nuw %struct.malloc_state, ptr %139, i32 0, i32 15
  %141 = load i32, ptr %140, align 8, !tbaa !10
  %142 = and i32 %141, 2
  %143 = icmp ne i32 %142, 0
  br i1 %143, label %144, label %147

144:                                              ; preds = %132
  %145 = load ptr, ptr %3, align 8, !tbaa !16
  %146 = getelementptr inbounds nuw %struct.malloc_state, ptr %145, i32 0, i32 16
  store atomic i32 0, ptr %146 release, align 4
  br label %147

147:                                              ; preds = %144, %132
  call void @llvm.lifetime.end.p0(i64 8, ptr %6) #9
  call void @llvm.lifetime.end.p0(i64 8, ptr %5) #9
  call void @llvm.lifetime.end.p0(i64 8, ptr %4) #9
  br label %148

148:                                              ; preds = %147, %30, %29, %24
  ret void
}

; Function Attrs: nounwind uwtable
define hidden void @boost_cont_malloc_stats(ptr dead_on_unwind noalias writable sret(%struct.boost_cont_malloc_stats_impl) align 8 %0) #0 {
  %2 = alloca ptr, align 8
  call void @llvm.lifetime.start.p0(i64 8, ptr %2) #9
  store ptr @_gm_, ptr %2, align 8, !tbaa !16
  %3 = load ptr, ptr %2, align 8, !tbaa !16
  call void @get_malloc_stats(ptr dead_on_unwind writable sret(%struct.boost_cont_malloc_stats_impl) align 8 %0, ptr noundef %3)
  call void @llvm.lifetime.end.p0(i64 8, ptr %2) #9
  ret void
}