; Function Attrs: nounwind uwtable
define hidden void @boost_cont_malloc_stats(ptr dead_on_unwind noalias nocapture writable writeonly sret(%struct.boost_cont_malloc_stats_impl) align 8 %0) local_unnamed_addr #0 {
  tail call void @llvm.experimental.noalias.scope.decl(metadata !97)
  tail call void @llvm.memset.p0.i64(ptr noundef nonnull align 8 dereferenceable(24) %0, i8 0, i64 24, i1 false), !alias.scope !97
  %2 = load i64, ptr @mparams, align 8, !tbaa !3, !noalias !97
  %.not.i = icmp eq i64 %2, 0
  br i1 %.not.i, label %3, label %4

3:                                                ; preds = %1
  tail call fastcc void @init_mparams()
  br label %4

4:                                                ; preds = %3, %1
  %5 = load i32, ptr getelementptr inbounds nuw (i8, ptr @_gm_, i64 880), align 8, !tbaa !9, !noalias !97
  %6 = and i32 %5, 2
  %.not38.i = icmp eq i32 %6, 0
  br i1 %.not38.i, label %spin_acquire_lock.exit.i, label %7

7:                                                ; preds = %4
  %8 = atomicrmw xchg ptr getelementptr inbounds nuw (i8, ptr @_gm_, i64 884), i32 1 seq_cst, align 4, !noalias !97
  %.not39.i = icmp eq i32 %8, 0
  br i1 %.not39.i, label %spin_acquire_lock.exit.i, label %.preheader.i

.preheader.i:                                     ; preds = %7, %.preheader.i.backedge
  %.0.i.i = phi i32 [ %12, %.preheader.i.backedge ], [ 0, %7 ]
  %9 = load volatile i32, ptr getelementptr inbounds nuw (i8, ptr @_gm_, i64 884), align 4, !tbaa !13, !noalias !97
  %.not.i.i = icmp eq i32 %9, 0
  br i1 %.not.i.i, label %10, label %.critedge.i.i

10:                                               ; preds = %.preheader.i
  %11 = atomicrmw xchg ptr getelementptr inbounds nuw (i8, ptr @_gm_, i64 884), i32 1 seq_cst, align 4, !noalias !97
  %.not2.i.i = icmp eq i32 %11, 0
  br i1 %.not2.i.i, label %spin_acquire_lock.exit.i, label %.critedge.i.i

.critedge.i.i:                                    ; preds = %10, %.preheader.i
  %12 = add nuw nsw i32 %.0.i.i, 1
  %13 = and i32 %12, 63
  %14 = icmp eq i32 %13, 0
  br i1 %14, label %15, label %.preheader.i.backedge

15:                                               ; preds = %.critedge.i.i
  %16 = tail call i32 @sched_yield() #17, !noalias !97
  br label %.preheader.i.backedge

.preheader.i.backedge:                            ; preds = %15, %.critedge.i.i
  br label %.preheader.i, !llvm.loop !14

spin_acquire_lock.exit.i:                         ; preds = %10, %7, %4
  %17 = load ptr, ptr getelementptr inbounds nuw (i8, ptr @_gm_, i64 40), align 8, !noalias !97
  %.not40.i = icmp eq ptr %17, null
  br i1 %.not40.i, label %.loopexit.i, label %18

18:                                               ; preds = %spin_acquire_lock.exit.i
  %19 = load i64, ptr getelementptr inbounds nuw (i8, ptr @_gm_, i64 864), align 8, !tbaa !50, !noalias !97
  %20 = load i64, ptr getelementptr inbounds nuw (i8, ptr @_gm_, i64 856), align 8, !tbaa !49, !noalias !97
  %21 = load i64, ptr getelementptr inbounds nuw (i8, ptr @_gm_, i64 16), align 8, !tbaa !28, !noalias !97
  %.neg1.i = add i64 %20, -80
  %22 = sub i64 %.neg1.i, %21
  br label %.lr.ph.i

.lr.ph.i:                                         ; preds = %.critedge.i, %18
  %.03110.i = phi ptr [ getelementptr inbounds nuw (i8, ptr @_gm_, i64 888), %18 ], [ %46, %.critedge.i ]
  %.19.i = phi i64 [ %22, %18 ], [ %.2.lcssa.ph.i, %.critedge.i ]
  %23 = load ptr, ptr %.03110.i, align 8, !tbaa !58, !noalias !97
  %24 = getelementptr inbounds nuw i8, ptr %23, i64 16
  %25 = ptrtoint ptr %24 to i64
  %26 = and i64 %25, 15
  %27 = icmp eq i64 %26, 0
  %28 = sub i64 0, %25
  %29 = and i64 %28, 15
  %30 = select i1 %27, i64 0, i64 %29
  %31 = getelementptr inbounds nuw i8, ptr %23, i64 %30
  %32 = getelementptr inbounds nuw i8, ptr %.03110.i, i64 8
  %33 = load i64, ptr %32, align 8, !tbaa !59, !noalias !97
  %34 = getelementptr inbounds nuw i8, ptr %23, i64 %33
  br label %35

35:                                               ; preds = %40, %.lr.ph.i
  %.04.i = phi ptr [ %31, %.lr.ph.i ], [ %44, %40 ]
  %.23.i = phi i64 [ %.19.i, %.lr.ph.i ], [ %.3.i, %40 ]
  %36 = icmp uge ptr %.04.i, %34
  %.not44.i = icmp eq ptr %.04.i, %17
  %or.cond.i = or i1 %.not44.i, %36
  br i1 %or.cond.i, label %.critedge.i, label %37

37:                                               ; preds = %35
  %38 = getelementptr inbounds nuw i8, ptr %.04.i, i64 8
  %39 = load i64, ptr %38, align 8, !tbaa !23, !noalias !97
  %.not45.i = icmp eq i64 %39, 11
  br i1 %.not45.i, label %.critedge.i, label %40

40:                                               ; preds = %37
  %41 = and i64 %39, 2
  %.not46.i = icmp eq i64 %41, 0
  %42 = and i64 %39, -8
  %43 = select i1 %.not46.i, i64 %42, i64 0
  %.3.i = sub i64 %.23.i, %43
  %44 = getelementptr inbounds nuw i8, ptr %.04.i, i64 %42
  %.not43.i = icmp ult ptr %44, %23
  br i1 %.not43.i, label %.critedge.i, label %35, !llvm.loop !100

.critedge.i:                                      ; preds = %40, %37, %35
  %.2.lcssa.ph.i = phi i64 [ %.23.i, %37 ], [ %.3.i, %40 ], [ %.23.i, %35 ]
  %45 = getelementptr inbounds nuw i8, ptr %.03110.i, i64 16
  %46 = load ptr, ptr %45, align 8, !tbaa !60, !noalias !97
  %.not41.i = icmp eq ptr %46, null
  br i1 %.not41.i, label %.loopexit.i, label %.lr.ph.i, !llvm.loop !101

.loopexit.i:                                      ; preds = %.critedge.i, %spin_acquire_lock.exit.i
  %.034.i = phi i64 [ 0, %spin_acquire_lock.exit.i ], [ %19, %.critedge.i ]
  %.033.i = phi i64 [ 0, %spin_acquire_lock.exit.i ], [ %20, %.critedge.i ]
  %.032.i = phi i64 [ 0, %spin_acquire_lock.exit.i ], [ %.2.lcssa.ph.i, %.critedge.i ]
  store i64 %.034.i, ptr %0, align 8, !tbaa !102, !alias.scope !97
  %47 = getelementptr inbounds nuw i8, ptr %0, i64 8
  store i64 %.033.i, ptr %47, align 8, !tbaa !104, !alias.scope !97
  %48 = getelementptr inbounds nuw i8, ptr %0, i64 16
  store i64 %.032.i, ptr %48, align 8, !tbaa !105, !alias.scope !97
  %49 = load i32, ptr getelementptr inbounds nuw (i8, ptr @_gm_, i64 880), align 8, !tbaa !9, !noalias !97
  %50 = and i32 %49, 2
  %.not42.i = icmp eq i32 %50, 0
  br i1 %.not42.i, label %get_malloc_stats.exit, label %51

51:                                               ; preds = %.loopexit.i
  store atomic i32 0, ptr getelementptr inbounds nuw (i8, ptr @_gm_, i64 884) release, align 4, !noalias !97
  br label %get_malloc_stats.exit

get_malloc_stats.exit:                            ; preds = %.loopexit.i, %51
  ret void
}